target datalayout = "e-m:e-p270:32:32-p271:32:32-p272:64:64-i64:64-i128:128-f80:128-n8:16:32:64-S128"
target triple = "x86_64-pc-linux-gnu"

@s_Truths6Neg = internal global [6 x i64] [i64 6148914691236517205, i64 3689348814741910323, i64 1085102592571150095, i64 71777214294589695, i64 281470681808895, i64 4294967295], align 16
@s_Truths6 = internal global [6 x i64] [i64 -6148914691236517206, i64 -3689348814741910324, i64 -1085102592571150096, i64 -71777214294589696, i64 -281470681808896, i64 -4294967296], align 16

; Function Attrs: inlinehint nounwind uwtable
define internal i64 @Abc_Tt6Cofactor1(i64 noundef %0, i32 noundef %1) #3 {
  %3 = alloca i64, align 8
  %4 = alloca i32, align 4
  store i64 %0, ptr %3, align 8, !tbaa !79
  store i32 %1, ptr %4, align 4, !tbaa !3
  %5 = load i64, ptr %3, align 8, !tbaa !79
  %6 = load i32, ptr %4, align 4, !tbaa !3
  %7 = sext i32 %6 to i64
  %8 = getelementptr inbounds [6 x i64], ptr @s_Truths6, i64 0, i64 %7
  %9 = load i64, ptr %8, align 8, !tbaa !79
  %10 = and i64 %5, %9
  %11 = load i64, ptr %3, align 8, !tbaa !79
  %12 = load i32, ptr %4, align 4, !tbaa !3
  %13 = sext i32 %12 to i64
  %14 = getelementptr inbounds [6 x i64], ptr @s_Truths6, i64 0, i64 %13
  %15 = load i64, ptr %14, align 8, !tbaa !79
  %16 = and i64 %11, %15
  %17 = load i32, ptr %4, align 4, !tbaa !3
  %18 = shl i32 1, %17
  %19 = zext i32 %18 to i64
  %20 = lshr i64 %16, %19
  %21 = or i64 %10, %20
  ret i64 %21
}

; Function Attrs: inlinehint nounwind uwtable
define internal i64 @Abc_Tt6Cofactor0(i64 noundef %0, i32 noundef %1) #3 {
  %3 = alloca i64, align 8
  %4 = alloca i32, align 4
  store i64 %0, ptr %3, align 8, !tbaa !79
  store i32 %1, ptr %4, align 4, !tbaa !3
  %5 = load i64, ptr %3, align 8, !tbaa !79
  %6 = load i32, ptr %4, align 4, !tbaa !3
  %7 = sext i32 %6 to i64
  %8 = getelementptr inbounds [6 x i64], ptr @s_Truths6Neg, i64 0, i64 %7
  %9 = load i64, ptr %8, align 8, !tbaa !79
  %10 = and i64 %5, %9
  %11 = load i64, ptr %3, align 8, !tbaa !79
  %12 = load i32, ptr %4, align 4, !tbaa !3
  %13 = sext i32 %12 to i64
  %14 = getelementptr inbounds [6 x i64], ptr @s_Truths6Neg, i64 0, i64 %13
  %15 = load i64, ptr %14, align 8, !tbaa !79
  %16 = and i64 %11, %15
  %17 = load i32, ptr %4, align 4, !tbaa !3
  %18 = shl i32 1, %17
  %19 = zext i32 %18 to i64
  %20 = shl i64 %16, %19
  %21 = or i64 %10, %20
  ret i64 %21
}

; Function Attrs: nounwind uwtable
define i32 @If_CluCheckDecInAny(i64 noundef %0, i32 noundef %1) #0 {
  %3 = alloca i32, align 4
  %4 = alloca i64, align 8
  %5 = alloca i32, align 4
  %6 = alloca i32, align 4
  %7 = alloca i32, align 4
  %8 = alloca [2 x i32], align 4
  %9 = alloca [4 x i32], align 16
  %10 = alloca i32, align 4
  store i64 %0, ptr %4, align 8, !tbaa !79
  store i32 %1, ptr %5, align 4, !tbaa !3
  call void @llvm.lifetime.start.p0(i64 4, ptr %6) #11
  call void @llvm.lifetime.start.p0(i64 4, ptr %7) #11
  call void @llvm.lifetime.start.p0(i64 8, ptr %8) #11
  call void @llvm.lifetime.start.p0(i64 16, ptr %9) #11
  store i32 0, ptr %6, align 4, !tbaa !3
  br label %11

11:                                               ; preds = %117, %2
  %12 = load i32, ptr %6, align 4, !tbaa !3
  %13 = load i32, ptr %5, align 4, !tbaa !3
  %14 = icmp slt i32 %12, %13
  br i1 %14, label %15, label %120

15:                                               ; preds = %11
  %16 = load i64, ptr %4, align 8, !tbaa !79
  %17 = load i32, ptr %6, align 4, !tbaa !3
  %18 = call i64 @Abc_Tt6Cofactor0(i64 noundef %16, i32 noundef %17)
  %19 = trunc i64 %18 to i32
  %20 = getelementptr inbounds [2 x i32], ptr %8, i64 0, i64 0
  store i32 %19, ptr %20, align 4, !tbaa !3
  %21 = load i64, ptr %4, align 8, !tbaa !79
  %22 = load i32, ptr %6, align 4, !tbaa !3
  %23 = call i64 @Abc_Tt6Cofactor1(i64 noundef %21, i32 noundef %22)
  %24 = trunc i64 %23 to i32
  %25 = getelementptr inbounds [2 x i32], ptr %8, i64 0, i64 1
  store i32 %24, ptr %25, align 4, !tbaa !3
  %26 = load i32, ptr %6, align 4, !tbaa !3
  %27 = add nsw i32 %26, 1
  store i32 %27, ptr %7, align 4, !tbaa !3
  br label %28

28:                                               ; preds = %113, %15
  %29 = load i32, ptr %7, align 4, !tbaa !3
  %30 = load i32, ptr %5, align 4, !tbaa !3
  %31 = icmp slt i32 %29, %30
  br i1 %31, label %32, label %116

32:                                               ; preds = %28
  %33 = getelementptr inbounds [2 x i32], ptr %8, i64 0, i64 0
  %34 = load i32, ptr %33, align 4, !tbaa !3
  %35 = sext i32 %34 to i64
  %36 = load i32, ptr %7, align 4, !tbaa !3
  %37 = call i64 @Abc_Tt6Cofactor0(i64 noundef %35, i32 noundef %36)
  %38 = trunc i64 %37 to i32
  %39 = getelementptr inbounds [4 x i32], ptr %9, i64 0, i64 0
  store i32 %38, ptr %39, align 16, !tbaa !3
  %40 = getelementptr inbounds [2 x i32], ptr %8, i64 0, i64 0
  %41 = load i32, ptr %40, align 4, !tbaa !3
  %42 = sext i32 %41 to i64
  %43 = load i32, ptr %7, align 4, !tbaa !3
  %44 = call i64 @Abc_Tt6Cofactor1(i64 noundef %42, i32 noundef %43)
  %45 = trunc i64 %44 to i32
  %46 = getelementptr inbounds [4 x i32], ptr %9, i64 0, i64 1
  store i32 %45, ptr %46, align 4, !tbaa !3
  %47 = getelementptr inbounds [2 x i32], ptr %8, i64 0, i64 1
  %48 = load i32, ptr %47, align 4, !tbaa !3
  %49 = sext i32 %48 to i64
  %50 = load i32, ptr %7, align 4, !tbaa !3
  %51 = call i64 @Abc_Tt6Cofactor0(i64 noundef %49, i32 noundef %50)
  %52 = trunc i64 %51 to i32
  %53 = getelementptr inbounds [4 x i32], ptr %9, i64 0, i64 2
  store i32 %52, ptr %53, align 8, !tbaa !3
  %54 = getelementptr inbounds [2 x i32], ptr %8, i64 0, i64 1
  %55 = load i32, ptr %54, align 4, !tbaa !3
  %56 = sext i32 %55 to i64
  %57 = load i32, ptr %7, align 4, !tbaa !3
  %58 = call i64 @Abc_Tt6Cofactor1(i64 noundef %56, i32 noundef %57)
  %59 = trunc i64 %58 to i32
  %60 = getelementptr inbounds [4 x i32], ptr %9, i64 0, i64 3
  store i32 %59, ptr %60, align 4, !tbaa !3
  %61 = getelementptr inbounds [4 x i32], ptr %9, i64 0, i64 0
  %62 = load i32, ptr %61, align 16, !tbaa !3
  %63 = getelementptr inbounds [4 x i32], ptr %9, i64 0, i64 1
  %64 = load i32, ptr %63, align 4, !tbaa !3
  %65 = icmp eq i32 %62, %64
  br i1 %65, label %66, label %73

66:                                               ; preds = %32
  %67 = getelementptr inbounds [4 x i32], ptr %9, i64 0, i64 0
  %68 = load i32, ptr %67, align 16, !tbaa !3
  %69 = getelementptr inbounds [4 x i32], ptr %9, i64 0, i64 2
  %70 = load i32, ptr %69, align 8, !tbaa !3
  %71 = icmp eq i32 %68, %70
  br i1 %71, label %72, label %73

72:                                               ; preds = %66
  store i32 1, ptr %3, align 4
  store i32 1, ptr %10, align 4
  br label %121

73:                                               ; preds = %66, %32
  %74 = getelementptr inbounds [4 x i32], ptr %9, i64 0, i64 0
  %75 = load i32, ptr %74, align 16, !tbaa !3
  %76 = getelementptr inbounds [4 x i32], ptr %9, i64 0, i64 2
  %77 = load i32, ptr %76, align 8, !tbaa !3
  %78 = icmp eq i32 %75, %77
  br i1 %78, label %79, label %86

79:                                               ; preds = %73
  %80 = getelementptr inbounds [4 x i32], ptr %9, i64 0, i64 0
  %81 = load i32, ptr %80, align 16, !tbaa !3
  %82 = getelementptr inbounds [4 x i32], ptr %9, i64 0, i64 3
  %83 = load i32, ptr %82, align 4, !tbaa !3
  %84 = icmp eq i32 %81, %83
  br i1 %84, label %85, label %86

85:                                               ; preds = %79
  store i32 1, ptr %3, align 4
  store i32 1, ptr %10, align 4
  br label %121

86:                                               ; preds = %79, %73
  %87 = getelementptr inbounds [4 x i32], ptr %9, i64 0, i64 0
  %88 = load i32, ptr %87, align 16, !tbaa !3
  %89 = getelementptr inbounds [4 x i32], ptr %9, i64 0, i64 1
  %90 = load i32, ptr %89, align 4, !tbaa !3
  %91 = icmp eq i32 %88, %90
  br i1 %91, label %92, label %99

92:                                               ; preds = %86
  %93 = getelementptr inbounds [4 x i32], ptr %9, i64 0, i64 0
  %94 = load i32, ptr %93, align 16, !tbaa !3
  %95 = getelementptr inbounds [4 x i32], ptr %9, i64 0, i64 3
  %96 = load i32, ptr %95, align 4, !tbaa !3
  %97 = icmp eq i32 %94, %96
  br i1 %97, label %98, label %99

98:                                               ; preds = %92
  store i32 1, ptr %3, align 4
  store i32 1, ptr %10, align 4
  br label %121

99:                                               ; preds = %92, %86
  %100 = getelementptr inbounds [4 x i32], ptr %9, i64 0, i64 1
  %101 = load i32, ptr %100, align 4, !tbaa !3
  %102 = getelementptr inbounds [4 x i32], ptr %9, i64 0, i64 2
  %103 = load i32, ptr %102, align 8, !tbaa !3
  %104 = icmp eq i32 %101, %103
  br i1 %104, label %105, label %112

105:                                              ; preds = %99
  %106 = getelementptr inbounds [4 x i32], ptr %9, i64 0, i64 1
  %107 = load i32, ptr %106, align 4, !tbaa !3
  %108 = getelementptr inbounds [4 x i32], ptr %9, i64 0, i64 3
  %109 = load i32, ptr %108, align 4, !tbaa !3
  %110 = icmp eq i32 %107, %109
  br i1 %110, label %111, label %112

111:                                              ; preds = %105
  store i32 1, ptr %3, align 4
  store i32 1, ptr %10, align 4
  br label %121

112:                                              ; preds = %105, %99
  br label %113

113:                                              ; preds = %112
  %114 = load i32, ptr %7, align 4, !tbaa !3
  %115 = add nsw i32 %114, 1
  store i32 %115, ptr %7, align 4, !tbaa !3
  br label %28, !llvm.loop !178

116:                                              ; preds = %28
  br label %117

117:                                              ; preds = %116
  %118 = load i32, ptr %6, align 4, !tbaa !3
  %119 = add nsw i32 %118, 1
  store i32 %119, ptr %6, align 4, !tbaa !3
  br label %11, !llvm.loop !179

120:                                              ; preds = %11
  store i32 0, ptr %3, align 4
  store i32 1, ptr %10, align 4
  br label %121

121:                                              ; preds = %120, %111, %98, %85, %72
  call void @llvm.lifetime.end.p0(i64 16, ptr %9) #11
  call void @llvm.lifetime.end.p0(i64 8, ptr %8) #11
  call void @llvm.lifetime.end.p0(i64 4, ptr %7) #11
  call void @llvm.lifetime.end.p0(i64 4, ptr %6) #11
  %122 = load i32, ptr %3, align 4
  ret i32 %122
}