; Function Attrs: nofree norecurse nosync nounwind memory(none) uwtable
define range(i32 0, 2) i32 @If_CluCheckDecInAny(i64 noundef %0, i32 noundef %1) local_unnamed_addr #0 {
  %3 = icmp sgt i32 %1, 0
  br i1 %3, label %.lr.ph45.preheader, label %.loopexit41

.lr.ph45.preheader:                               ; preds = %2
  %4 = zext nneg i32 %1 to i64
  %wide.trip.count53 = zext nneg i32 %1 to i64
  br label %.lr.ph45

.loopexit:                                        ; preds = %21, %.lr.ph45
  %indvars.iv.next = add nuw nsw i64 %indvars.iv, 1
  %exitcond54.not = icmp eq i64 %indvars.iv.next51, %wide.trip.count53
  br i1 %exitcond54.not, label %.loopexit41, label %.lr.ph45, !llvm.loop !184

.lr.ph45:                                         ; preds = %.lr.ph45.preheader, %.loopexit
  %indvars.iv50 = phi i64 [ 0, %.lr.ph45.preheader ], [ %indvars.iv.next51, %.loopexit ]
  %indvars.iv = phi i64 [ 1, %.lr.ph45.preheader ], [ %indvars.iv.next, %.loopexit ]
  %indvars.iv.next51 = add nuw nsw i64 %indvars.iv50, 1
  %5 = icmp samesign ult i64 %indvars.iv.next51, %4
  br i1 %5, label %.lr.ph, label %.loopexit

.lr.ph:                                           ; preds = %.lr.ph45
  %6 = getelementptr inbounds nuw [6 x i64], ptr @s_Truths6, i64 0, i64 %indvars.iv50
  %7 = load i64, ptr %6, align 8, !tbaa !16
  %8 = and i64 %7, %0
  %9 = trunc nuw nsw i64 %indvars.iv50 to i32
  %10 = shl nuw i32 1, %9
  %11 = zext nneg i32 %10 to i64
  %12 = lshr i64 %8, %11
  %13 = or i64 %12, %8
  %14 = getelementptr inbounds nuw [6 x i64], ptr @s_Truths6Neg, i64 0, i64 %indvars.iv50
  %15 = load i64, ptr %14, align 8, !tbaa !16
  %16 = and i64 %15, %0
  %17 = shl i64 %16, %11
  %18 = or i64 %17, %16
  %sext = shl i64 %18, 32
  %19 = ashr exact i64 %sext, 32
  %sext36 = shl i64 %13, 32
  %20 = ashr exact i64 %sext36, 32
  br label %22

21:                                               ; preds = %51
  %indvars.iv.next48 = add nuw nsw i64 %indvars.iv47, 1
  %exitcond.not = icmp eq i64 %indvars.iv.next48, %wide.trip.count53
  br i1 %exitcond.not, label %.loopexit, label %22, !llvm.loop !185

22:                                               ; preds = %.lr.ph, %21
  %indvars.iv47 = phi i64 [ %indvars.iv, %.lr.ph ], [ %indvars.iv.next48, %21 ]
  %23 = getelementptr inbounds nuw [6 x i64], ptr @s_Truths6Neg, i64 0, i64 %indvars.iv47
  %24 = load i64, ptr %23, align 8, !tbaa !16
  %25 = and i64 %24, %19
  %26 = trunc nuw nsw i64 %indvars.iv47 to i32
  %27 = shl nuw i32 1, %26
  %28 = zext nneg i32 %27 to i64
  %29 = shl i64 %25, %28
  %30 = or i64 %29, %25
  %31 = trunc i64 %30 to i32
  %32 = getelementptr inbounds nuw [6 x i64], ptr @s_Truths6, i64 0, i64 %indvars.iv47
  %33 = load i64, ptr %32, align 8, !tbaa !16
  %34 = and i64 %33, %19
  %35 = lshr i64 %34, %28
  %36 = or i64 %35, %34
  %37 = trunc i64 %36 to i32
  %38 = and i64 %24, %20
  %39 = shl i64 %38, %28
  %40 = or i64 %39, %38
  %41 = trunc i64 %40 to i32
  %42 = and i64 %33, %20
  %43 = lshr i64 %42, %28
  %44 = or i64 %43, %42
  %45 = trunc i64 %44 to i32
  %46 = icmp eq i32 %31, %37
  %47 = icmp eq i32 %31, %41
  %or.cond = select i1 %46, i1 %47, i1 false
  br i1 %or.cond, label %.loopexit41, label %48

48:                                               ; preds = %22
  %49 = icmp eq i32 %31, %45
  %50 = or i1 %47, %46
  %or.cond40 = select i1 %50, i1 %49, i1 false
  br i1 %or.cond40, label %.loopexit41, label %51

51:                                               ; preds = %48
  %52 = icmp eq i32 %37, %41
  %53 = icmp eq i32 %37, %45
  %or.cond39 = select i1 %52, i1 %53, i1 false
  br i1 %or.cond39, label %.loopexit41, label %21

.loopexit41:                                      ; preds = %.loopexit, %51, %48, %22, %2
  %.0 = phi i32 [ 0, %2 ], [ 1, %22 ], [ 1, %48 ], [ 1, %51 ], [ 0, %.loopexit ]
  ret i32 %.0
}